target datalayout = "e-m:e-p270:32:32-p271:32:32-p272:64:64-i64:64-i128:128-f80:128-n8:16:32:64-S128"
target triple = "x86_64-pc-linux-gnu"

; Function Attrs: nounwind sspstrong uwtable
define internal i32 @cp949_mbc_enc_len(ptr noundef %0, ptr noundef %1, ptr noundef %2) #0 {
  %4 = alloca i32, align 4
  %5 = alloca ptr, align 8
  %6 = alloca ptr, align 8
  %7 = alloca ptr, align 8
  %8 = alloca i32, align 4
  %9 = alloca i32, align 4
  %10 = alloca i32, align 4
  store ptr %0, ptr %5, align 8, !tbaa !13
  store ptr %1, ptr %6, align 8, !tbaa !13
  store ptr %2, ptr %7, align 8, !tbaa !14
  call void @llvm.lifetime.start.p0(i64 4, ptr %8) #3
  %11 = load ptr, ptr %5, align 8, !tbaa !13
  %12 = getelementptr inbounds nuw i8, ptr %11, i32 1
  store ptr %12, ptr %5, align 8, !tbaa !13
  %13 = load i8, ptr %11, align 1, !tbaa !16
  %14 = zext i8 %13 to i32
  store i32 %14, ptr %8, align 4, !tbaa !17
  call void @llvm.lifetime.start.p0(i64 4, ptr %9) #3
  %15 = load i32, ptr %8, align 4, !tbaa !17
  %16 = sext i32 %15 to i64
  %17 = getelementptr inbounds [256 x i8], ptr @trans, i64 0, i64 %16
  %18 = load i8, ptr %17, align 1, !tbaa !16
  %19 = sext i8 %18 to i32
  store i32 %19, ptr %9, align 4, !tbaa !17
  %20 = load i32, ptr %9, align 4, !tbaa !17
  %21 = icmp slt i32 %20, 0
  br i1 %21, label %22, label %26

22:                                               ; preds = %3
  %23 = load i32, ptr %9, align 4, !tbaa !17
  %24 = icmp eq i32 %23, -1
  %25 = select i1 %24, i32 1, i32 -1
  store i32 %25, ptr %4, align 4
  store i32 1, ptr %10, align 4
  br label %51

26:                                               ; preds = %3
  %27 = load ptr, ptr %5, align 8, !tbaa !13
  %28 = load ptr, ptr %6, align 8, !tbaa !13
  %29 = icmp eq ptr %27, %28
  br i1 %29, label %30, label %37

30:                                               ; preds = %26
  %31 = load i32, ptr %8, align 4, !tbaa !17
  %32 = sext i32 %31 to i64
  %33 = getelementptr inbounds [256 x i32], ptr @EncLen_CP949, i64 0, i64 %32
  %34 = load i32, ptr %33, align 4, !tbaa !17
  %35 = sub nsw i32 %34, 1
  %36 = sub nsw i32 -1, %35
  store i32 %36, ptr %4, align 4
  store i32 1, ptr %10, align 4
  br label %51

37:                                               ; preds = %26
  %38 = load i32, ptr %9, align 4, !tbaa !17
  %39 = sext i32 %38 to i64
  %40 = getelementptr inbounds [2 x [256 x i8]], ptr @trans, i64 0, i64 %39
  %41 = load ptr, ptr %5, align 8, !tbaa !13
  %42 = getelementptr inbounds nuw i8, ptr %41, i32 1
  store ptr %42, ptr %5, align 8, !tbaa !13
  %43 = load i8, ptr %41, align 1, !tbaa !16
  %44 = zext i8 %43 to i64
  %45 = getelementptr inbounds nuw [256 x i8], ptr %40, i64 0, i64 %44
  %46 = load i8, ptr %45, align 1, !tbaa !16
  %47 = sext i8 %46 to i32
  store i32 %47, ptr %9, align 4, !tbaa !17
  %48 = load i32, ptr %9, align 4, !tbaa !17
  %49 = icmp eq i32 %48, -1
  %50 = select i1 %49, i32 2, i32 -1
  store i32 %50, ptr %4, align 4
  store i32 1, ptr %10, align 4
  br label %51

51:                                               ; preds = %37, %30, %22
  call void @llvm.lifetime.end.p0(i64 4, ptr %9) #3
  call void @llvm.lifetime.end.p0(i64 4, ptr %8) #3
  %52 = load i32, ptr %4, align 4
  ret i32 %52
}